target datalayout = "e-m:e-p270:32:32-p271:32:32-p272:64:64-i64:64-i128:128-f80:128-n8:16:32:64-S128"
target triple = "x86_64-pc-linux-gnu"

%struct.Gia_Man_t_ = type { ptr, ptr, i32, i32, i32, i32, ptr, ptr, i32, i32, i32, ptr, ptr, %struct.Vec_Int_t_, %struct.Vec_Int_t_, i32, i32, i32, %struct.Vec_Int_t_, ptr, ptr, ptr, i32, i32, i32, i32, ptr, ptr, ptr, ptr, ptr, i32, i32, ptr, i32, ptr, ptr, ptr, ptr, ptr, ptr, ptr, ptr, ptr, ptr, ptr, ptr, ptr, ptr, ptr, ptr, ptr, ptr, %struct.Vec_Int_t_, %struct.Vec_Int_t_, ptr, ptr, ptr, ptr, ptr, ptr, ptr, ptr, ptr, ptr, ptr, ptr, ptr, ptr, ptr, ptr, ptr, ptr, ptr, ptr, ptr, i32, float, float, ptr, ptr, i32, ptr, ptr, ptr, ptr, ptr, ptr, ptr, ptr, ptr, ptr, ptr, ptr, ptr, ptr, ptr, i64, i64, ptr, ptr, i32, i32, i32, i32, i32, i32, i32, i32, i32, i32, i32, i32, ptr, ptr, ptr, ptr, ptr, ptr, ptr, ptr, i32, i32, i32, ptr, i32, i32, ptr, ptr, ptr, ptr, ptr, ptr, i32, i32, ptr, %struct.Vec_Int_t_, %struct.Vec_Int_t_, %struct.Vec_Int_t_, ptr, ptr, ptr, i32, i32, i32, i32, ptr, ptr, ptr, ptr, ptr }
%struct.Vec_Int_t_ = type { i32, i32, ptr }
%struct.Gia_Obj_t_ = type <{ i64, i32 }>

; Function Attrs: inlinehint nounwind uwtable
define internal ptr @Gia_ManObj(ptr noundef %0, i32 noundef %1) #4 {
  %3 = alloca ptr, align 8
  %4 = alloca i32, align 4
  store ptr %0, ptr %3, align 8, !tbaa !3
  store i32 %1, ptr %4, align 4, !tbaa !8
  %5 = load ptr, ptr %3, align 8, !tbaa !3
  %6 = getelementptr inbounds nuw %struct.Gia_Man_t_, ptr %5, i32 0, i32 6
  %7 = load ptr, ptr %6, align 8, !tbaa !34
  %8 = load i32, ptr %4, align 4, !tbaa !8
  %9 = sext i32 %8 to i64
  %10 = getelementptr inbounds %struct.Gia_Obj_t_, ptr %7, i64 %9
  ret ptr %10
}

; Function Attrs: inlinehint nounwind uwtable
define internal i32 @Vec_IntEntry(ptr noundef %0, i32 noundef %1) #4 {
  %3 = alloca ptr, align 8
  %4 = alloca i32, align 4
  store ptr %0, ptr %3, align 8, !tbaa !35
  store i32 %1, ptr %4, align 4, !tbaa !8
  %5 = load ptr, ptr %3, align 8, !tbaa !35
  %6 = getelementptr inbounds nuw %struct.Vec_Int_t_, ptr %5, i32 0, i32 2
  %7 = load ptr, ptr %6, align 8, !tbaa !40
  %8 = load i32, ptr %4, align 4, !tbaa !8
  %9 = sext i32 %8 to i64
  %10 = getelementptr inbounds i32, ptr %7, i64 %9
  %11 = load i32, ptr %10, align 4, !tbaa !8
  ret i32 %11
}

; Function Attrs: inlinehint nounwind uwtable
define internal i32 @Gia_ObjRefNumId(ptr noundef %0, i32 noundef %1) #4 {
  %3 = alloca ptr, align 8
  %4 = alloca i32, align 4
  store ptr %0, ptr %3, align 8, !tbaa !3
  store i32 %1, ptr %4, align 4, !tbaa !8
  %5 = load ptr, ptr %3, align 8, !tbaa !3
  %6 = getelementptr inbounds nuw %struct.Gia_Man_t_, ptr %5, i32 0, i32 19
  %7 = load ptr, ptr %6, align 8, !tbaa !10
  %8 = load i32, ptr %4, align 4, !tbaa !8
  %9 = sext i32 %8 to i64
  %10 = getelementptr inbounds i32, ptr %7, i64 %9
  %11 = load i32, ptr %10, align 4, !tbaa !8
  ret i32 %11
}

; Function Attrs: inlinehint nounwind uwtable
define internal i32 @Gia_ObjId(ptr noundef %0, ptr noundef %1) #4 {
  %3 = alloca ptr, align 8
  %4 = alloca ptr, align 8
  store ptr %0, ptr %3, align 8, !tbaa !3
  store ptr %1, ptr %4, align 8, !tbaa !31
  %5 = load ptr, ptr %4, align 8, !tbaa !31
  %6 = load ptr, ptr %3, align 8, !tbaa !3
  %7 = getelementptr inbounds nuw %struct.Gia_Man_t_, ptr %6, i32 0, i32 6
  %8 = load ptr, ptr %7, align 8, !tbaa !34
  %9 = ptrtoint ptr %5 to i64
  %10 = ptrtoint ptr %8 to i64
  %11 = sub i64 %9, %10
  %12 = sdiv exact i64 %11, 12
  %13 = trunc i64 %12 to i32
  ret i32 %13
}

; Function Attrs: inlinehint nounwind uwtable
define internal i32 @Vec_IntSize(ptr noundef %0) #4 {
  %2 = alloca ptr, align 8
  store ptr %0, ptr %2, align 8, !tbaa !35
  %3 = load ptr, ptr %2, align 8, !tbaa !35
  %4 = getelementptr inbounds nuw %struct.Vec_Int_t_, ptr %3, i32 0, i32 1
  %5 = load i32, ptr %4, align 4, !tbaa !38
  ret i32 %5
}

; Function Attrs: inlinehint nounwind uwtable
define internal ptr @Gia_ManCi(ptr noundef %0, i32 noundef %1) #4 {
  %3 = alloca ptr, align 8
  %4 = alloca i32, align 4
  store ptr %0, ptr %3, align 8, !tbaa !3
  store i32 %1, ptr %4, align 4, !tbaa !8
  %5 = load ptr, ptr %3, align 8, !tbaa !3
  %6 = load ptr, ptr %3, align 8, !tbaa !3
  %7 = getelementptr inbounds nuw %struct.Gia_Man_t_, ptr %6, i32 0, i32 11
  %8 = load ptr, ptr %7, align 8, !tbaa !41
  %9 = load i32, ptr %4, align 4, !tbaa !8
  %10 = call i32 @Vec_IntEntry(ptr noundef %8, i32 noundef %9)
  %11 = call ptr @Gia_ManObj(ptr noundef %5, i32 noundef %10)
  ret ptr %11
}

; Function Attrs: inlinehint nounwind uwtable
define internal i32 @Gia_ObjRefNum(ptr noundef %0, ptr noundef %1) #4 {
  %3 = alloca ptr, align 8
  %4 = alloca ptr, align 8
  store ptr %0, ptr %3, align 8, !tbaa !3
  store ptr %1, ptr %4, align 8, !tbaa !31
  %5 = load ptr, ptr %3, align 8, !tbaa !3
  %6 = load ptr, ptr %3, align 8, !tbaa !3
  %7 = load ptr, ptr %4, align 8, !tbaa !31
  %8 = call i32 @Gia_ObjId(ptr noundef %6, ptr noundef %7)
  %9 = call i32 @Gia_ObjRefNumId(ptr noundef %5, i32 noundef %8)
  ret i32 %9
}

; Function Attrs: inlinehint nounwind uwtable
define internal ptr @Gia_ManPi(ptr noundef %0, i32 noundef %1) #4 {
  %3 = alloca ptr, align 8
  %4 = alloca i32, align 4
  store ptr %0, ptr %3, align 8, !tbaa !3
  store i32 %1, ptr %4, align 4, !tbaa !8
  %5 = load ptr, ptr %3, align 8, !tbaa !3
  %6 = load i32, ptr %4, align 4, !tbaa !8
  %7 = call ptr @Gia_ManCi(ptr noundef %5, i32 noundef %6)
  ret ptr %7
}

; Function Attrs: inlinehint nounwind uwtable
define internal i32 @Gia_ManAndNum(ptr noundef %0) #4 {
  %2 = alloca ptr, align 8
  store ptr %0, ptr %2, align 8, !tbaa !3
  %3 = load ptr, ptr %2, align 8, !tbaa !3
  %4 = getelementptr inbounds nuw %struct.Gia_Man_t_, ptr %3, i32 0, i32 4
  %5 = load i32, ptr %4, align 8, !tbaa !30
  %6 = load ptr, ptr %2, align 8, !tbaa !3
  %7 = getelementptr inbounds nuw %struct.Gia_Man_t_, ptr %6, i32 0, i32 11
  %8 = load ptr, ptr %7, align 8, !tbaa !41
  %9 = call i32 @Vec_IntSize(ptr noundef %8)
  %10 = sub nsw i32 %5, %9
  %11 = load ptr, ptr %2, align 8, !tbaa !3
  %12 = getelementptr inbounds nuw %struct.Gia_Man_t_, ptr %11, i32 0, i32 12
  %13 = load ptr, ptr %12, align 8, !tbaa !45
  %14 = call i32 @Vec_IntSize(ptr noundef %13)
  %15 = sub nsw i32 %10, %14
  %16 = sub nsw i32 %15, 1
  ret i32 %16
}

; Function Attrs: inlinehint nounwind uwtable
define internal i32 @Abc_MinInt(i32 noundef %0, i32 noundef %1) #4 {
  %3 = alloca i32, align 4
  %4 = alloca i32, align 4
  store i32 %0, ptr %3, align 4, !tbaa !8
  store i32 %1, ptr %4, align 4, !tbaa !8
  %5 = load i32, ptr %3, align 4, !tbaa !8
  %6 = load i32, ptr %4, align 4, !tbaa !8
  %7 = icmp slt i32 %5, %6
  br i1 %7, label %8, label %10

8:                                                ; preds = %2
  %9 = load i32, ptr %3, align 4, !tbaa !8
  br label %12

10:                                               ; preds = %2
  %11 = load i32, ptr %4, align 4, !tbaa !8
  br label %12

12:                                               ; preds = %10, %8
  %13 = phi i32 [ %9, %8 ], [ %11, %10 ]
  ret i32 %13
}

; Function Attrs: inlinehint nounwind uwtable
define internal i32 @Gia_ManPiNum(ptr noundef %0) #4 {
  %2 = alloca ptr, align 8
  store ptr %0, ptr %2, align 8, !tbaa !3
  %3 = load ptr, ptr %2, align 8, !tbaa !3
  %4 = getelementptr inbounds nuw %struct.Gia_Man_t_, ptr %3, i32 0, i32 11
  %5 = load ptr, ptr %4, align 8, !tbaa !41
  %6 = call i32 @Vec_IntSize(ptr noundef %5)
  %7 = load ptr, ptr %2, align 8, !tbaa !3
  %8 = getelementptr inbounds nuw %struct.Gia_Man_t_, ptr %7, i32 0, i32 2
  %9 = load i32, ptr %8, align 8, !tbaa !42
  %10 = sub nsw i32 %6, %9
  ret i32 %10
}

; Function Attrs: nounwind uwtable
define i32 @Gia_SplitCofVar2(ptr noundef %0, ptr noundef %1, ptr noundef %2) #0 {
  %4 = alloca ptr, align 8
  %5 = alloca ptr, align 8
  %6 = alloca ptr, align 8
  %7 = alloca ptr, align 8
  %8 = alloca i32, align 4
  %9 = alloca i32, align 4
  %10 = alloca i32, align 4
  store ptr %0, ptr %4, align 8, !tbaa !3
  store ptr %1, ptr %5, align 8, !tbaa !37
  store ptr %2, ptr %6, align 8, !tbaa !37
  call void @llvm.lifetime.start.p0(i64 8, ptr %7) #12
  call void @llvm.lifetime.start.p0(i64 4, ptr %8) #12
  call void @llvm.lifetime.start.p0(i64 4, ptr %9) #12
  store i32 -1, ptr %9, align 4, !tbaa !8
  call void @llvm.lifetime.start.p0(i64 4, ptr %10) #12
  store i32 -1, ptr %10, align 4, !tbaa !8
  %11 = load ptr, ptr %4, align 8, !tbaa !3
  %12 = getelementptr inbounds nuw %struct.Gia_Man_t_, ptr %11, i32 0, i32 19
  %13 = load ptr, ptr %12, align 8, !tbaa !10
  %14 = icmp eq ptr %13, null
  br i1 %14, label %15, label %17

15:                                               ; preds = %3
  %16 = load ptr, ptr %4, align 8, !tbaa !3
  call void @Gia_ManCreateRefs(ptr noundef %16)
  br label %17

17:                                               ; preds = %15, %3
  store i32 0, ptr %8, align 4, !tbaa !8
  br label %18

18:                                               ; preds = %42, %17
  %19 = load i32, ptr %8, align 4, !tbaa !8
  %20 = load ptr, ptr %4, align 8, !tbaa !3
  %21 = call i32 @Gia_ManPiNum(ptr noundef %20)
  %22 = icmp slt i32 %19, %21
  br i1 %22, label %23, label %28

23:                                               ; preds = %18
  %24 = load ptr, ptr %4, align 8, !tbaa !3
  %25 = load i32, ptr %8, align 4, !tbaa !8
  %26 = call ptr @Gia_ManCi(ptr noundef %24, i32 noundef %25)
  store ptr %26, ptr %7, align 8, !tbaa !31
  %27 = icmp ne ptr %26, null
  br label %28

28:                                               ; preds = %23, %18
  %29 = phi i1 [ false, %18 ], [ %27, %23 ]
  br i1 %29, label %30, label %45

30:                                               ; preds = %28
  %31 = load i32, ptr %10, align 4, !tbaa !8
  %32 = load ptr, ptr %4, align 8, !tbaa !3
  %33 = load ptr, ptr %7, align 8, !tbaa !31
  %34 = call i32 @Gia_ObjRefNum(ptr noundef %32, ptr noundef %33)
  %35 = icmp slt i32 %31, %34
  br i1 %35, label %36, label %41

36:                                               ; preds = %30
  %37 = load i32, ptr %8, align 4, !tbaa !8
  store i32 %37, ptr %9, align 4, !tbaa !8
  %38 = load ptr, ptr %4, align 8, !tbaa !3
  %39 = load ptr, ptr %7, align 8, !tbaa !31
  %40 = call i32 @Gia_ObjRefNum(ptr noundef %38, ptr noundef %39)
  store i32 %40, ptr %10, align 4, !tbaa !8
  br label %41

41:                                               ; preds = %36, %30
  br label %42

42:                                               ; preds = %41
  %43 = load i32, ptr %8, align 4, !tbaa !8
  %44 = add nsw i32 %43, 1
  store i32 %44, ptr %8, align 4, !tbaa !8
  br label %18, !llvm.loop !43

45:                                               ; preds = %28
  %46 = load ptr, ptr %4, align 8, !tbaa !3
  %47 = load ptr, ptr %4, align 8, !tbaa !3
  %48 = load i32, ptr %9, align 4, !tbaa !8
  %49 = call ptr @Gia_ManPi(ptr noundef %47, i32 noundef %48)
  %50 = call i32 @Gia_ObjRefNum(ptr noundef %46, ptr noundef %49)
  %51 = load ptr, ptr %5, align 8, !tbaa !37
  store i32 %50, ptr %51, align 4, !tbaa !8
  %52 = load ptr, ptr %6, align 8, !tbaa !37
  store i32 -1, ptr %52, align 4, !tbaa !8
  %53 = load i32, ptr %9, align 4, !tbaa !8
  call void @llvm.lifetime.end.p0(i64 4, ptr %10) #12
  call void @llvm.lifetime.end.p0(i64 4, ptr %9) #12
  call void @llvm.lifetime.end.p0(i64 4, ptr %8) #12
  call void @llvm.lifetime.end.p0(i64 8, ptr %7) #12
  ret i32 %53
}

; Function Attrs: nounwind uwtable
define i32 @Gia_SplitCofVar(ptr noundef %0, i32 noundef %1, ptr noundef %2, ptr noundef %3) #0 {
  %5 = alloca i32, align 4
  %6 = alloca ptr, align 8
  %7 = alloca i32, align 4
  %8 = alloca ptr, align 8
  %9 = alloca ptr, align 8
  %10 = alloca ptr, align 8
  %11 = alloca i32, align 4
  %12 = alloca i32, align 4
  %13 = alloca i32, align 4
  %14 = alloca ptr, align 8
  %15 = alloca i32, align 4
  %16 = alloca i32, align 4
  %17 = alloca i32, align 4
  store ptr %0, ptr %6, align 8, !tbaa !3
  store i32 %1, ptr %7, align 4, !tbaa !8
  store ptr %2, ptr %8, align 8, !tbaa !37
  store ptr %3, ptr %9, align 8, !tbaa !37
  call void @llvm.lifetime.start.p0(i64 8, ptr %10) #12
  call void @llvm.lifetime.start.p0(i64 4, ptr %11) #12
  call void @llvm.lifetime.start.p0(i64 4, ptr %12) #12
  call void @llvm.lifetime.start.p0(i64 4, ptr %13) #12
  store i32 1000000000, ptr %13, align 4, !tbaa !8
  call void @llvm.lifetime.start.p0(i64 8, ptr %14) #12
  call void @llvm.lifetime.start.p0(i64 4, ptr %15) #12
  call void @llvm.lifetime.start.p0(i64 4, ptr %16) #12
  store i32 -1, ptr %16, align 4, !tbaa !8
  %18 = load i32, ptr %7, align 4, !tbaa !8
  %19 = icmp eq i32 %18, 1
  br i1 %19, label %20, label %25

20:                                               ; preds = %4
  %21 = load ptr, ptr %6, align 8, !tbaa !3
  %22 = load ptr, ptr %8, align 8, !tbaa !37
  %23 = load ptr, ptr %9, align 8, !tbaa !37
  %24 = call i32 @Gia_SplitCofVar2(ptr noundef %21, ptr noundef %22, ptr noundef %23)
  store i32 %24, ptr %5, align 4
  store i32 1, ptr %17, align 4
  br label %91

25:                                               ; preds = %4
  %26 = load ptr, ptr %6, align 8, !tbaa !3
  %27 = call ptr @Gia_PermuteSpecialOrder(ptr noundef %26)
  store ptr %27, ptr %14, align 8, !tbaa !37
  %28 = load i32, ptr %7, align 4, !tbaa !8
  %29 = load ptr, ptr %6, align 8, !tbaa !3
  %30 = call i32 @Gia_ManPiNum(ptr noundef %29)
  %31 = call i32 @Abc_MinInt(i32 noundef %28, i32 noundef %30)
  store i32 %31, ptr %7, align 4, !tbaa !8
  store i32 0, ptr %15, align 4, !tbaa !8
  br label %32

32:                                               ; preds = %72, %25
  %33 = load i32, ptr %15, align 4, !tbaa !8
  %34 = load i32, ptr %7, align 4, !tbaa !8
  %35 = icmp slt i32 %33, %34
  br i1 %35, label %36, label %75

36:                                               ; preds = %32
  %37 = load ptr, ptr %6, align 8, !tbaa !3
  %38 = load ptr, ptr %14, align 8, !tbaa !37
  %39 = load i32, ptr %15, align 4, !tbaa !8
  %40 = sext i32 %39 to i64
  %41 = getelementptr inbounds i32, ptr %38, i64 %40
  %42 = load i32, ptr %41, align 4, !tbaa !8
  %43 = call ptr @Gia_ManDupCofactorVar(ptr noundef %37, i32 noundef %42, i32 noundef 0)
  store ptr %43, ptr %10, align 8, !tbaa !3
  %44 = load ptr, ptr %10, align 8, !tbaa !3
  %45 = call i32 @Gia_ManAndNum(ptr noundef %44)
  store i32 %45, ptr %11, align 4, !tbaa !8
  %46 = load ptr, ptr %10, align 8, !tbaa !3
  call void @Gia_ManStop(ptr noundef %46)
  %47 = load ptr, ptr %6, align 8, !tbaa !3
  %48 = load ptr, ptr %14, align 8, !tbaa !37
  %49 = load i32, ptr %15, align 4, !tbaa !8
  %50 = sext i32 %49 to i64
  %51 = getelementptr inbounds i32, ptr %48, i64 %50
  %52 = load i32, ptr %51, align 4, !tbaa !8
  %53 = call ptr @Gia_ManDupCofactorVar(ptr noundef %47, i32 noundef %52, i32 noundef 1)
  store ptr %53, ptr %10, align 8, !tbaa !3
  %54 = load ptr, ptr %10, align 8, !tbaa !3
  %55 = call i32 @Gia_ManAndNum(ptr noundef %54)
  store i32 %55, ptr %12, align 4, !tbaa !8
  %56 = load ptr, ptr %10, align 8, !tbaa !3
  call void @Gia_ManStop(ptr noundef %56)
  %57 = load i32, ptr %13, align 4, !tbaa !8
  %58 = load i32, ptr %11, align 4, !tbaa !8
  %59 = load i32, ptr %12, align 4, !tbaa !8
  %60 = add nsw i32 %58, %59
  %61 = icmp sgt i32 %57, %60
  br i1 %61, label %62, label %71

62:                                               ; preds = %36
  %63 = load i32, ptr %11, align 4, !tbaa !8
  %64 = load i32, ptr %12, align 4, !tbaa !8
  %65 = add nsw i32 %63, %64
  store i32 %65, ptr %13, align 4, !tbaa !8
  %66 = load ptr, ptr %14, align 8, !tbaa !37
  %67 = load i32, ptr %15, align 4, !tbaa !8
  %68 = sext i32 %67 to i64
  %69 = getelementptr inbounds i32, ptr %66, i64 %68
  %70 = load i32, ptr %69, align 4, !tbaa !8
  store i32 %70, ptr %16, align 4, !tbaa !8
  br label %71

71:                                               ; preds = %62, %36
  br label %72

72:                                               ; preds = %71
  %73 = load i32, ptr %15, align 4, !tbaa !8
  %74 = add nsw i32 %73, 1
  store i32 %74, ptr %15, align 4, !tbaa !8
  br label %32, !llvm.loop !44

75:                                               ; preds = %32
  %76 = load ptr, ptr %14, align 8, !tbaa !37
  %77 = icmp ne ptr %76, null
  br i1 %77, label %78, label %80

78:                                               ; preds = %75
  %79 = load ptr, ptr %14, align 8, !tbaa !37
  call void @free(ptr noundef %79) #12
  store ptr null, ptr %14, align 8, !tbaa !37
  br label %81

80:                                               ; preds = %75
  br label %81

81:                                               ; preds = %80, %78
  %82 = load ptr, ptr %6, align 8, !tbaa !3
  %83 = load ptr, ptr %6, align 8, !tbaa !3
  %84 = load i32, ptr %16, align 4, !tbaa !8
  %85 = call ptr @Gia_ManPi(ptr noundef %83, i32 noundef %84)
  %86 = call i32 @Gia_ObjRefNum(ptr noundef %82, ptr noundef %85)
  %87 = load ptr, ptr %8, align 8, !tbaa !37
  store i32 %86, ptr %87, align 4, !tbaa !8
  %88 = load i32, ptr %13, align 4, !tbaa !8
  %89 = load ptr, ptr %9, align 8, !tbaa !37
  store i32 %88, ptr %89, align 4, !tbaa !8
  %90 = load i32, ptr %16, align 4, !tbaa !8
  store i32 %90, ptr %5, align 4
  store i32 1, ptr %17, align 4
  br label %91

91:                                               ; preds = %81, %20
  call void @llvm.lifetime.end.p0(i64 4, ptr %16) #12
  call void @llvm.lifetime.end.p0(i64 4, ptr %15) #12
  call void @llvm.lifetime.end.p0(i64 8, ptr %14) #12
  call void @llvm.lifetime.end.p0(i64 4, ptr %13) #12
  call void @llvm.lifetime.end.p0(i64 4, ptr %12) #12
  call void @llvm.lifetime.end.p0(i64 4, ptr %11) #12
  call void @llvm.lifetime.end.p0(i64 8, ptr %10) #12
  %92 = load i32, ptr %5, align 4
  ret i32 %92
}