; Function Attrs: nounwind uwtable
define i32 @Gia_SplitCofVar(ptr noundef %0, i32 noundef %1, ptr noundef writeonly captures(none) %2, ptr noundef writeonly captures(none) %3) local_unnamed_addr #0 {
  %5 = icmp eq i32 %1, 1
  br i1 %5, label %6, label %31

6:                                                ; preds = %4
  %7 = getelementptr inbounds nuw i8, ptr %0, i64 144
  %8 = load ptr, ptr %7, align 8, !tbaa !3
  %9 = icmp eq ptr %8, null
  br i1 %9, label %10, label %11

10:                                               ; preds = %6
  tail call void @Gia_ManCreateRefs(ptr noundef nonnull %0) #18
  br label %11

11:                                               ; preds = %10, %6
  %12 = getelementptr i8, ptr %0, i64 16
  %.val27.i = load i32, ptr %12, align 8, !tbaa !34
  %13 = getelementptr i8, ptr %0, i64 64
  %.val28.i = load ptr, ptr %13, align 8, !tbaa !35
  %14 = getelementptr i8, ptr %.val28.i, i64 4
  %.val28.val.i = load i32, ptr %14, align 4, !tbaa !36
  %15 = sub nsw i32 %.val28.val.i, %.val27.i
  %16 = icmp sgt i32 %15, 0
  br i1 %16, label %.lr.ph.i, label %..critedge_crit_edge.i

..critedge_crit_edge.i:                           ; preds = %11
  %.val22.pre.i = load ptr, ptr %7, align 8, !tbaa !3
  br label %Gia_SplitCofVar2.exit

.lr.ph.i:                                         ; preds = %11
  %17 = getelementptr i8, ptr %0, i64 32
  %.val29.i = load ptr, ptr %17, align 8, !tbaa !29
  %.not.i = icmp eq ptr %.val29.i, null
  %.val22.pre45.i = load ptr, ptr %7, align 8, !tbaa !3
  br i1 %.not.i, label %Gia_SplitCofVar2.exit, label %.lr.ph.split.i

.lr.ph.split.i:                                   ; preds = %.lr.ph.i
  %18 = getelementptr i8, ptr %.val28.i, i64 8
  %.val30.val.i = load ptr, ptr %18, align 8, !tbaa !38
  %wide.trip.count.i = zext nneg i32 %15 to i64
  br label %19

19:                                               ; preds = %19, %.lr.ph.split.i
  %indvars.iv.i = phi i64 [ 0, %.lr.ph.split.i ], [ %indvars.iv.next.i, %19 ]
  %.038.i = phi i32 [ -1, %.lr.ph.split.i ], [ %spec.select35.i, %19 ]
  %.01837.i = phi i32 [ -1, %.lr.ph.split.i ], [ %spec.select.i, %19 ]
  %20 = getelementptr inbounds nuw i32, ptr %.val30.val.i, i64 %indvars.iv.i
  %21 = load i32, ptr %20, align 4, !tbaa !30
  %22 = zext i32 %21 to i64
  %sext.i.i = shl nuw i64 %22, 32
  %23 = ashr exact i64 %sext.i.i, 30
  %24 = getelementptr inbounds i8, ptr %.val22.pre45.i, i64 %23
  %25 = load i32, ptr %24, align 4, !tbaa !30
  %26 = icmp slt i32 %.038.i, %25
  %27 = trunc nuw nsw i64 %indvars.iv.i to i32
  %spec.select.i = select i1 %26, i32 %27, i32 %.01837.i
  %spec.select35.i = tail call i32 @llvm.smax.i32(i32 %.038.i, i32 %25)
  %indvars.iv.next.i = add nuw nsw i64 %indvars.iv.i, 1
  %exitcond.not.i = icmp eq i64 %indvars.iv.next.i, %wide.trip.count.i
  br i1 %exitcond.not.i, label %Gia_SplitCofVar2.exit, label %19, !llvm.loop !40

Gia_SplitCofVar2.exit:                            ; preds = %19, %..critedge_crit_edge.i, %.lr.ph.i
  %.val22.i = phi ptr [ %.val22.pre.i, %..critedge_crit_edge.i ], [ %.val22.pre45.i, %.lr.ph.i ], [ %.val22.pre45.i, %19 ]
  %.018.lcssa.i = phi i32 [ -1, %..critedge_crit_edge.i ], [ -1, %.lr.ph.i ], [ %spec.select.i, %19 ]
  %28 = getelementptr i8, ptr %.val28.i, i64 8
  %.val32.val.i = load ptr, ptr %28, align 8, !tbaa !38
  %29 = sext i32 %.018.lcssa.i to i64
  %30 = getelementptr inbounds i32, ptr %.val32.val.i, i64 %29
  br label %74

31:                                               ; preds = %4
  %32 = tail call ptr @Gia_PermuteSpecialOrder(ptr noundef %0)
  %33 = getelementptr i8, ptr %0, i64 16
  %.val44 = load i32, ptr %33, align 8, !tbaa !34
  %34 = getelementptr i8, ptr %0, i64 64
  %.val45 = load ptr, ptr %34, align 8, !tbaa !35
  %35 = getelementptr i8, ptr %.val45, i64 4
  %.val45.val = load i32, ptr %35, align 4, !tbaa !36
  %36 = sub nsw i32 %.val45.val, %.val44
  %37 = tail call noundef i32 @llvm.smin.i32(i32 range(i32 2, 1) %1, i32 %36)
  %38 = icmp sgt i32 %37, 0
  br i1 %38, label %.lr.ph.preheader, label %._crit_edge

.lr.ph.preheader:                                 ; preds = %31
  %wide.trip.count = zext nneg i32 %37 to i64
  br label %.lr.ph

.lr.ph:                                           ; preds = %.lr.ph.preheader, %68
  %indvars.iv = phi i64 [ 0, %.lr.ph.preheader ], [ %indvars.iv.next, %68 ]
  %.057 = phi i32 [ -1, %.lr.ph.preheader ], [ %.1, %68 ]
  %.03755 = phi i32 [ 1000000000, %.lr.ph.preheader ], [ %.138, %68 ]
  %39 = getelementptr inbounds nuw i32, ptr %32, i64 %indvars.iv
  %40 = load i32, ptr %39, align 4, !tbaa !30
  %41 = tail call ptr @Gia_ManDupCofactorVar(ptr noundef %0, i32 noundef %40, i32 noundef 0) #18
  %42 = getelementptr inbounds nuw i8, ptr %41, i64 24
  %43 = load i32, ptr %42, align 8, !tbaa !28
  %44 = getelementptr inbounds nuw i8, ptr %41, i64 64
  %45 = load ptr, ptr %44, align 8, !tbaa !35
  %46 = getelementptr i8, ptr %45, i64 4
  %.val3.i = load i32, ptr %46, align 4, !tbaa !36
  %47 = getelementptr inbounds nuw i8, ptr %41, i64 72
  %48 = load ptr, ptr %47, align 8, !tbaa !41
  %49 = getelementptr i8, ptr %48, i64 4
  %.val.i = load i32, ptr %49, align 4, !tbaa !36
  tail call void @Gia_ManStop(ptr noundef %41) #18
  %50 = load i32, ptr %39, align 4, !tbaa !30
  %51 = tail call ptr @Gia_ManDupCofactorVar(ptr noundef %0, i32 noundef %50, i32 noundef 1) #18
  %52 = getelementptr inbounds nuw i8, ptr %51, i64 24
  %53 = load i32, ptr %52, align 8, !tbaa !28
  %54 = getelementptr inbounds nuw i8, ptr %51, i64 64
  %55 = load ptr, ptr %54, align 8, !tbaa !35
  %56 = getelementptr i8, ptr %55, i64 4
  %.val3.i48 = load i32, ptr %56, align 4, !tbaa !36
  %57 = getelementptr inbounds nuw i8, ptr %51, i64 72
  %58 = load ptr, ptr %57, align 8, !tbaa !41
  %59 = getelementptr i8, ptr %58, i64 4
  %.val.i49 = load i32, ptr %59, align 4, !tbaa !36
  tail call void @Gia_ManStop(ptr noundef %51) #18
  %.neg54 = add i32 %43, -2
  %60 = add i32 %.val3.i, %.val.i
  %61 = add i32 %.neg54, %53
  %62 = add i32 %60, %.val3.i48
  %63 = add i32 %62, %.val.i49
  %64 = sub i32 %61, %63
  %65 = icmp sgt i32 %.03755, %64
  br i1 %65, label %66, label %68

66:                                               ; preds = %.lr.ph
  %67 = load i32, ptr %39, align 4, !tbaa !30
  br label %68

68:                                               ; preds = %.lr.ph, %66
  %.138 = phi i32 [ %64, %66 ], [ %.03755, %.lr.ph ]
  %.1 = phi i32 [ %67, %66 ], [ %.057, %.lr.ph ]
  %indvars.iv.next = add nuw nsw i64 %indvars.iv, 1
  %exitcond.not = icmp eq i64 %indvars.iv.next, %wide.trip.count
  br i1 %exitcond.not, label %._crit_edge.thread, label %.lr.ph, !llvm.loop !42

._crit_edge:                                      ; preds = %31
  %.not = icmp eq ptr %32, null
  br i1 %.not, label %69, label %._crit_edge.thread

._crit_edge.thread:                               ; preds = %68, %._crit_edge
  %.0.lcssa65 = phi i32 [ -1, %._crit_edge ], [ %.1, %68 ]
  %.037.lcssa63 = phi i32 [ 1000000000, %._crit_edge ], [ %.138, %68 ]
  tail call void @free(ptr noundef nonnull %32) #18
  br label %69

69:                                               ; preds = %._crit_edge, %._crit_edge.thread
  %.0.lcssa66 = phi i32 [ -1, %._crit_edge ], [ %.0.lcssa65, %._crit_edge.thread ]
  %.037.lcssa64 = phi i32 [ 1000000000, %._crit_edge ], [ %.037.lcssa63, %._crit_edge.thread ]
  %.val47 = load ptr, ptr %34, align 8, !tbaa !35
  %70 = getelementptr i8, ptr %.val47, i64 8
  %.val47.val = load ptr, ptr %70, align 8, !tbaa !38
  %71 = sext i32 %.0.lcssa66 to i64
  %72 = getelementptr inbounds i32, ptr %.val47.val, i64 %71
  %73 = getelementptr i8, ptr %0, i64 144
  %.val43 = load ptr, ptr %73, align 8, !tbaa !3
  br label %74

74:                                               ; preds = %69, %Gia_SplitCofVar2.exit
  %.sink.in.in = phi ptr [ %72, %69 ], [ %30, %Gia_SplitCofVar2.exit ]
  %.val43.sink = phi ptr [ %.val43, %69 ], [ %.val22.i, %Gia_SplitCofVar2.exit ]
  %storemerge = phi i32 [ %.037.lcssa64, %69 ], [ -1, %Gia_SplitCofVar2.exit ]
  %.039 = phi i32 [ %.0.lcssa66, %69 ], [ %.018.lcssa.i, %Gia_SplitCofVar2.exit ]
  %.sink.in = load i32, ptr %.sink.in.in, align 4, !tbaa !30
  %.sink = zext i32 %.sink.in to i64
  %sext.i = shl nuw i64 %.sink, 32
  %75 = ashr exact i64 %sext.i, 30
  %76 = getelementptr inbounds i8, ptr %.val43.sink, i64 %75
  %storemerge50 = load i32, ptr %76, align 4, !tbaa !30
  store i32 %storemerge50, ptr %2, align 4, !tbaa !30
  store i32 %storemerge, ptr %3, align 4, !tbaa !30
  ret i32 %.039
}